target datalayout = "e-m:e-p270:32:32-p271:32:32-p272:64:64-i64:64-i128:128-f80:128-n8:16:32:64-S128"
target triple = "x86_64-pc-linux-gnu"

%struct.wtap_dumper = type { ptr, i32, i32, i32, i32, i8, i64, ptr, ptr, ptr, ptr, ptr, ptr, ptr, ptr, ptr, ptr, ptr, ptr, ptr, i32, i32, i32 }
%struct.nstrace_dump_t = type { i32, i16, i16, i32, i8 }

; Function Attrs: null_pointer_is_valid sspstrong uwtable
define internal zeroext i1 @nstrace_dump_open(ptr noundef %0, i32 noundef %1, ptr noundef %2, ptr noundef %3) #0 {
  %5 = alloca ptr, align 8
  %6 = alloca i32, align 4
  %7 = alloca ptr, align 8
  %8 = alloca ptr, align 8
  %9 = alloca ptr, align 8
  %10 = alloca i64, align 8
  %11 = alloca i64, align 8
  %12 = alloca ptr, align 8
  %13 = alloca ptr, align 8
  store ptr %0, ptr %5, align 8
  store i32 %1, ptr %6, align 4
  store ptr %2, ptr %7, align 8
  store ptr %3, ptr %8, align 8
  call void @llvm.lifetime.start.p0(i64 8, ptr %9) #13
  %14 = load ptr, ptr %5, align 8
  %15 = getelementptr inbounds nuw %struct.wtap_dumper, ptr %14, i32 0, i32 10
  store ptr @nstrace_dump, ptr %15, align 8
  call void @llvm.lifetime.start.p0(i64 8, ptr %10) #13
  store i64 1, ptr %10, align 8
  call void @llvm.lifetime.start.p0(i64 8, ptr %11) #13
  store i64 16, ptr %11, align 8
  call void @llvm.lifetime.start.p0(i64 8, ptr %12) #13
  %16 = load i64, ptr %11, align 8
  %17 = icmp eq i64 %16, 1
  br i1 %17, label %18, label %21

18:                                               ; preds = %4
  %19 = load i64, ptr %10, align 8
  %20 = call noalias ptr @g_malloc(i64 noundef %19) #14
  store ptr %20, ptr %12, align 8
  br label %42

21:                                               ; preds = %4
  %22 = load i64, ptr %10, align 8
  %23 = call i1 @llvm.is.constant.i64(i64 %22)
  br i1 %23, label %24, label %37

24:                                               ; preds = %21
  %25 = load i64, ptr %11, align 8
  %26 = icmp eq i64 %25, 0
  br i1 %26, label %32, label %27

27:                                               ; preds = %24
  %28 = load i64, ptr %10, align 8
  %29 = load i64, ptr %11, align 8
  %30 = udiv i64 -1, %29
  %31 = icmp ule i64 %28, %30
  br i1 %31, label %32, label %37

32:                                               ; preds = %27, %24
  %33 = load i64, ptr %10, align 8
  %34 = load i64, ptr %11, align 8
  %35 = mul i64 %33, %34
  %36 = call noalias ptr @g_malloc(i64 noundef %35) #14
  store ptr %36, ptr %12, align 8
  br label %41

37:                                               ; preds = %27, %21
  %38 = load i64, ptr %10, align 8
  %39 = load i64, ptr %11, align 8
  %40 = call noalias ptr @g_malloc_n(i64 noundef %38, i64 noundef %39) #15
  store ptr %40, ptr %12, align 8
  br label %41

41:                                               ; preds = %37, %32
  br label %42

42:                                               ; preds = %41, %18
  %43 = load ptr, ptr %12, align 8
  store ptr %43, ptr %13, align 8
  call void @llvm.lifetime.end.p0(i64 8, ptr %12) #13
  call void @llvm.lifetime.end.p0(i64 8, ptr %11) #13
  call void @llvm.lifetime.end.p0(i64 8, ptr %10) #13
  %44 = load ptr, ptr %13, align 8
  store ptr %44, ptr %9, align 8
  %45 = load ptr, ptr %9, align 8
  %46 = load ptr, ptr %5, align 8
  %47 = getelementptr inbounds nuw %struct.wtap_dumper, ptr %46, i32 0, i32 7
  store ptr %45, ptr %47, align 8
  %48 = load i32, ptr %6, align 4
  %49 = load ptr, ptr %9, align 8
  %50 = getelementptr inbounds nuw %struct.nstrace_dump_t, ptr %49, i32 0, i32 0
  store i32 %48, ptr %50, align 4
  %51 = load ptr, ptr %9, align 8
  %52 = getelementptr inbounds nuw %struct.nstrace_dump_t, ptr %51, i32 0, i32 1
  store i16 0, ptr %52, align 4
  %53 = load ptr, ptr %9, align 8
  %54 = getelementptr inbounds nuw %struct.nstrace_dump_t, ptr %53, i32 0, i32 0
  %55 = load i32, ptr %54, align 4
  %56 = icmp eq i32 %55, 2
  br i1 %56, label %62, label %57

57:                                               ; preds = %42
  %58 = load ptr, ptr %9, align 8
  %59 = getelementptr inbounds nuw %struct.nstrace_dump_t, ptr %58, i32 0, i32 0
  %60 = load i32, ptr %59, align 4
  %61 = icmp eq i32 %60, 3
  br i1 %61, label %62, label %65

62:                                               ; preds = %57, %42
  %63 = load ptr, ptr %9, align 8
  %64 = getelementptr inbounds nuw %struct.nstrace_dump_t, ptr %63, i32 0, i32 2
  store i16 16384, ptr %64, align 2
  br label %68

65:                                               ; preds = %57
  %66 = load ptr, ptr %9, align 8
  %67 = getelementptr inbounds nuw %struct.nstrace_dump_t, ptr %66, i32 0, i32 2
  store i16 8192, ptr %67, align 2
  br label %68

68:                                               ; preds = %65, %62
  %69 = load ptr, ptr %9, align 8
  %70 = getelementptr inbounds nuw %struct.nstrace_dump_t, ptr %69, i32 0, i32 3
  store i32 0, ptr %70, align 4
  %71 = load ptr, ptr %9, align 8
  %72 = getelementptr inbounds nuw %struct.nstrace_dump_t, ptr %71, i32 0, i32 4
  store i8 1, ptr %72, align 4
  call void @llvm.lifetime.end.p0(i64 8, ptr %9) #13
  ret i1 true
}

; Function Attrs: null_pointer_is_valid sspstrong uwtable
define internal zeroext i1 @nstrace_20_dump_open(ptr noundef %0, ptr noundef %1, ptr noundef %2) #0 {
  %4 = alloca ptr, align 8
  %5 = alloca ptr, align 8
  %6 = alloca ptr, align 8
  store ptr %0, ptr %4, align 8
  store ptr %1, ptr %5, align 8
  store ptr %2, ptr %6, align 8
  %7 = load ptr, ptr %4, align 8
  %8 = load ptr, ptr %5, align 8
  %9 = load ptr, ptr %6, align 8
  %10 = call zeroext i1 @nstrace_dump_open(ptr noundef %7, i32 noundef 1, ptr noundef %8, ptr noundef %9)
  ret i1 %10
}