; Function Attrs: null_pointer_is_valid sspstrong uwtable
define internal noundef zeroext i1 @nstrace_20_dump_open(ptr noundef writeonly captures(none) initializes((40, 48), (64, 72)) %0, ptr readnone captures(none) %1, ptr readnone captures(none) %2) #0 {
  %4 = getelementptr inbounds nuw i8, ptr %0, i64 64
  store ptr @nstrace_dump, ptr %4, align 8
  %5 = tail call noalias dereferenceable_or_null(16) ptr @g_malloc(i64 noundef 16) #10
  %6 = getelementptr inbounds nuw i8, ptr %0, i64 40
  store ptr %5, ptr %6, align 8
  store i32 1, ptr %5, align 4
  %7 = getelementptr inbounds nuw i8, ptr %5, i64 4
  store i16 0, ptr %7, align 4
  %8 = getelementptr inbounds nuw i8, ptr %5, i64 6
  store i16 8192, ptr %8, align 2
  %9 = getelementptr inbounds nuw i8, ptr %5, i64 8
  store i32 0, ptr %9, align 4
  %10 = getelementptr inbounds nuw i8, ptr %5, i64 12
  store i8 1, ptr %10, align 4
  ret i1 true
}